((dp1
Vattachments
p2
(lp3
sVto
p4
c__builtin__
set
p5
((lp6
Vsilas@ur.ac.rw
p7
atRp8
sVhtml
p9
I01
sVfrom
p10
Vhodardhazwinayo@gmail.com
p11
sVreply_to
p12
g5
((ltRp13
sVcc
p14
g5
((ltRp15
sVsubject
p16
V[Indico] Public Lecture
p17
sVbody
p18
V<body>\u000a        \u000a\u000a    <p>Welcome to participate in our public talk that will be held in Huye campus, former NUR.</p>\u000a\u000a    \u000a\u000a    </body>
p19
sVbcc
p20
g5
((lp21
Vhodardhazwinayo@gmail.com
p22
atRp23
sI16
t.